; ModuleID = 'source-C-CXX/53/817.cpp'
source_filename = "source-C-CXX/53/817.cpp"
target datalayout = "e-m:e-p270:32:32-p271:32:32-p272:64:64-i64:64-f80:128-n8:16:32:64-S128"
target triple = "x86_64-pc-linux-gnu"

%"class.std::ios_base::Init" = type { i8 }
%"class.std::basic_istream" = type { i32 (...)**, i64, %"class.std::basic_ios" }
%"class.std::basic_ios" = type { %"class.std::ios_base", %"class.std::basic_ostream"*, i8, i8, %"class.std::basic_streambuf"*, %"class.std::ctype"*, %"class.std::num_put"*, %"class.std::num_get"* }
%"class.std::ios_base" = type { i32 (...)**, i64, i64, i32, i32, i32, %"struct.std::ios_base::_Callback_list"*, %"struct.std::ios_base::_Words", [8 x %"struct.std::ios_base::_Words"], i32, %"struct.std::ios_base::_Words"*, %"class.std::locale" }
%"struct.std::ios_base::_Callback_list" = type { %"struct.std::ios_base::_Callback_list"*, void (i32, %"class.std::ios_base"*, i32)*, i32, i32 }
%"struct.std::ios_base::_Words" = type { i8*, i64 }
%"class.std::locale" = type { %"class.std::locale::_Impl"* }
%"class.std::locale::_Impl" = type { i32, %"class.std::locale::facet"**, i64, %"class.std::locale::facet"**, i8** }
%"class.std::locale::facet" = type <{ i32 (...)**, i32, [4 x i8] }>
%"class.std::basic_ostream" = type { i32 (...)**, %"class.std::basic_ios" }
%"class.std::basic_streambuf" = type { i32 (...)**, i8*, i8*, i8*, i8*, i8*, i8*, %"class.std::locale" }
%"class.std::ctype" = type <{ %"class.std::locale::facet.base", [4 x i8], %struct.__locale_struct*, i8, [7 x i8], i32*, i32*, i16*, i8, [256 x i8], [256 x i8], i8, [6 x i8] }>
%"class.std::locale::facet.base" = type <{ i32 (...)**, i32 }>
%struct.__locale_struct = type { [13 x %struct.__locale_data*], i16*, i32*, i32*, [13 x i8*] }
%struct.__locale_data = type opaque
%"class.std::num_put" = type { %"class.std::locale::facet.base", [4 x i8] }
%"class.std::num_get" = type { %"class.std::locale::facet.base", [4 x i8] }

@_ZStL8__ioinit = internal global %"class.std::ios_base::Init" zeroinitializer, align 1
@__dso_handle = external hidden global i8
@_ZSt3cin = external global %"class.std::basic_istream", align 8
@_ZSt4cout = external global %"class.std::basic_ostream", align 8
@llvm.global_ctors = appending global [1 x { i32, void ()*, i8* }] [{ i32, void ()*, i8* } { i32 65535, void ()* @_GLOBAL__sub_I_817.cpp, i8* null }]

declare void @_ZNSt8ios_base4InitC1Ev(%"class.std::ios_base::Init"* nonnull align 1 dereferenceable(1)) unnamed_addr #0

; Function Attrs: nounwind
declare void @_ZNSt8ios_base4InitD1Ev(%"class.std::ios_base::Init"* nonnull align 1 dereferenceable(1)) unnamed_addr #1

; Function Attrs: nofree nounwind
declare i32 @__cxa_atexit(void (i8*)*, i8*, i8*) local_unnamed_addr #2

; Function Attrs: mustprogress norecurse sspstrong uwtable
define dso_local i32 @main() local_unnamed_addr #3 {
  %1 = alloca i32, align 4
  %2 = alloca i32, align 4
  %3 = bitcast i32* %1 to i8*
  call void @llvm.lifetime.start.p0i8(i64 4, i8* nonnull %3) #8
  %4 = bitcast i32* %2 to i8*
  call void @llvm.lifetime.start.p0i8(i64 4, i8* nonnull %4) #8
  %5 = call nonnull align 8 dereferenceable(16) %"class.std::basic_istream"* @_ZNSirsERi(%"class.std::basic_istream"* nonnull align 8 dereferenceable(16) @_ZSt3cin, i32* nonnull align 4 dereferenceable(4) %1)
  %6 = call nonnull align 8 dereferenceable(16) %"class.std::basic_istream"* @_ZNSirsERi(%"class.std::basic_istream"* nonnull align 8 dereferenceable(16) %5, i32* nonnull align 4 dereferenceable(4) %2)
  %7 = load i32, i32* %1, align 4, !tbaa !5
  %8 = add nsw i32 %7, 1
  %9 = zext i32 %8 to i64
  %10 = call i8* @llvm.stacksave()
  %11 = alloca i32, i64 %9, align 16
  %12 = load i32, i32* %1, align 4, !tbaa !5
  %13 = load i32, i32* %2, align 4, !tbaa !5
  %14 = add nsw i32 %13, %12
  %15 = getelementptr inbounds i32, i32* %11, i64 1
  %16 = add nsw i32 %12, -1
  %17 = icmp slt i32 %12, 2
  %18 = add i32 %12, 1
  br i1 %17, label %21, label %19

19:                                               ; preds = %0
  %20 = zext i32 %18 to i64
  br label %31

21:                                               ; preds = %0
  %22 = icmp eq i32 %18, 2
  call void @llvm.assume(i1 %22)
  br label %23

23:                                               ; preds = %21, %23
  %24 = phi i32 [ %29, %23 ], [ %14, %21 ]
  %25 = srem i32 %24, %12
  %26 = icmp ne i32 %25, 0
  %27 = icmp eq i32 %25, %13
  %28 = select i1 %26, i1 %27, i1 false
  %29 = add nsw i32 %24, 1
  br i1 %28, label %30, label %23, !llvm.loop !9

30:                                               ; preds = %23
  store i32 %24, i32* %15, align 4, !tbaa !5
  br label %60

31:                                               ; preds = %19, %57
  %32 = phi i32 [ %59, %57 ], [ %14, %19 ]
  store i32 %32, i32* %15, align 4, !tbaa !5
  %33 = srem i32 %32, %12
  %34 = icmp ne i32 %33, 0
  %35 = icmp eq i32 %33, %13
  %36 = select i1 %34, i1 %35, i1 false
  br i1 %36, label %37, label %57

37:                                               ; preds = %31, %45
  %38 = phi i32 [ %48, %45 ], [ %32, %31 ]
  %39 = phi i64 [ %50, %45 ], [ 2, %31 ]
  %40 = srem i32 %38, %12
  %41 = icmp eq i32 %40, 0
  br i1 %41, label %52, label %42

42:                                               ; preds = %37
  %43 = srem i32 %38, %16
  %44 = icmp eq i32 %43, 0
  br i1 %44, label %45, label %52

45:                                               ; preds = %42
  %46 = mul nsw i32 %38, %12
  %47 = sdiv i32 %46, %16
  %48 = add nsw i32 %47, %13
  %49 = getelementptr inbounds i32, i32* %11, i64 %39
  store i32 %48, i32* %49, align 4, !tbaa !5
  %50 = add nuw nsw i64 %39, 1
  %51 = icmp eq i64 %50, %20
  br i1 %51, label %60, label %37, !llvm.loop !11

52:                                               ; preds = %37, %42
  %53 = trunc i64 %39 to i32
  %54 = icmp eq i32 %18, %53
  br i1 %54, label %60, label %55

55:                                               ; preds = %52
  %56 = load i32, i32* %15, align 4, !tbaa !5
  br label %57

57:                                               ; preds = %55, %31
  %58 = phi i32 [ %56, %55 ], [ %32, %31 ]
  %59 = add nsw i32 %58, 1
  br label %31, !llvm.loop !9

60:                                               ; preds = %52, %45, %30
  %61 = sext i32 %12 to i64
  %62 = getelementptr inbounds i32, i32* %11, i64 %61
  %63 = load i32, i32* %62, align 4, !tbaa !5
  %64 = call nonnull align 8 dereferenceable(8) %"class.std::basic_ostream"* @_ZNSolsEi(%"class.std::basic_ostream"* nonnull align 8 dereferenceable(8) @_ZSt4cout, i32 %63)
  call void @llvm.stackrestore(i8* %10)
  call void @llvm.lifetime.end.p0i8(i64 4, i8* nonnull %4) #8
  call void @llvm.lifetime.end.p0i8(i64 4, i8* nonnull %3) #8
  ret i32 0
}

; Function Attrs: argmemonly mustprogress nofree nosync nounwind willreturn
declare void @llvm.lifetime.start.p0i8(i64 immarg, i8* nocapture) #4

declare nonnull align 8 dereferenceable(16) %"class.std::basic_istream"* @_ZNSirsERi(%"class.std::basic_istream"* nonnull align 8 dereferenceable(16), i32* nonnull align 4 dereferenceable(4)) local_unnamed_addr #0

; Function Attrs: mustprogress nofree nosync nounwind willreturn
declare i8* @llvm.stacksave() #5

declare nonnull align 8 dereferenceable(8) %"class.std::basic_ostream"* @_ZNSolsEi(%"class.std::basic_ostream"* nonnull align 8 dereferenceable(8), i32) local_unnamed_addr #0

; Function Attrs: mustprogress nofree nosync nounwind willreturn
declare void @llvm.stackrestore(i8*) #5

; Function Attrs: argmemonly mustprogress nofree nosync nounwind willreturn
declare void @llvm.lifetime.end.p0i8(i64 immarg, i8* nocapture) #4

; Function Attrs: sspstrong uwtable
define internal void @_GLOBAL__sub_I_817.cpp() #6 section ".text.startup" {
  tail call void @_ZNSt8ios_base4InitC1Ev(%"class.std::ios_base::Init"* nonnull align 1 dereferenceable(1) @_ZStL8__ioinit)
  %1 = tail call i32 @__cxa_atexit(void (i8*)* bitcast (void (%"class.std::ios_base::Init"*)* @_ZNSt8ios_base4InitD1Ev to void (i8*)*), i8* getelementptr inbounds (%"class.std::ios_base::Init", %"class.std::ios_base::Init"* @_ZStL8__ioinit, i64 0, i32 0), i8* nonnull @__dso_handle) #8
  ret void
}

; Function Attrs: inaccessiblememonly nofree nosync nounwind willreturn
declare void @llvm.assume(i1 noundef) #7


!llvm.module.flags = !{!0, !1, !2, !3}
!llvm.ident = !{!4}

!0 = !{i32 1, !"wchar_size", i32 4}
!1 = !{i32 7, !"PIC Level", i32 2}
!2 = !{i32 7, !"PIE Level", i32 2}
!3 = !{i32 7, !"uwtable", i32 1}
!4 = !{!"clang version 13.0.0"}
!5 = !{!6, !6, i64 0}
!6 = !{!"int", !7, i64 0}
!7 = !{!"omnipotent char", !8, i64 0}
!8 = !{!"Simple C++ TBAA"}
!9 = distinct !{!9, !10}
!10 = !{!"llvm.loop.mustprogress"}
!11 = distinct !{!11, !10}
